; Function Attrs: mustprogress uwtable
define noundef ptr @_Z14gmx_rmpbc_initRK22InteractionDefinitions7PbcTypei(ptr noundef nonnull align 8 dereferenceable(2736) %0, i32 noundef %1, i32 noundef %2) local_unnamed_addr #0 {
  %4 = tail call noundef ptr @_Z11save_callocPKcS0_imm(ptr noundef nonnull @.str, ptr noundef nonnull @.str.1, i32 noundef 123, i64 noundef 1, i64 noundef 40)
  %5 = getelementptr inbounds i8, ptr %4, i64 16
  store i32 %2, ptr %5, align 8
  %6 = getelementptr inbounds i8, ptr %4, i64 20
  store i32 %1, ptr %6, align 4
  store ptr %0, ptr %4, align 8
  ret ptr %4
}